target datalayout = "e-m:e-p270:32:32-p271:32:32-p272:64:64-i64:64-i128:128-f80:128-n8:16:32:64-S128"
target triple = "x86_64-pc-linux-gnu"

%struct.CBraState = type { i64, i64, i64, i32, i32, i32, i32, i32, [256 x i8], [16384 x i8] }

; Function Attrs: nounwind uwtable
define i32 @BraState_SetProps(ptr noundef %0, ptr noundef %1, i64 noundef %2, ptr noundef %3) #0 {
  %5 = alloca i32, align 4
  %6 = alloca ptr, align 8
  %7 = alloca ptr, align 8
  %8 = alloca i64, align 8
  %9 = alloca ptr, align 8
  %10 = alloca ptr, align 8
  %11 = alloca i32, align 4
  store ptr %0, ptr %6, align 8
  store ptr %1, ptr %7, align 8
  store i64 %2, ptr %8, align 8
  store ptr %3, ptr %9, align 8
  %12 = load ptr, ptr %6, align 8
  store ptr %12, ptr %10, align 8
  %13 = load ptr, ptr %10, align 8
  %14 = getelementptr inbounds %struct.CBraState, ptr %13, i32 0, i32 4
  store i32 0, ptr %14, align 4
  %15 = load ptr, ptr %10, align 8
  %16 = getelementptr inbounds %struct.CBraState, ptr %15, i32 0, i32 6
  store i32 0, ptr %16, align 4
  %17 = load ptr, ptr %10, align 8
  %18 = getelementptr inbounds %struct.CBraState, ptr %17, i32 0, i32 3
  %19 = load i32, ptr %18, align 8
  %20 = icmp eq i32 %19, 3
  br i1 %20, label %21, label %33

21:                                               ; preds = %4
  %22 = load i64, ptr %8, align 8
  %23 = icmp ne i64 %22, 1
  br i1 %23, label %24, label %25

24:                                               ; preds = %21
  store i32 4, ptr %5, align 4
  br label %71

25:                                               ; preds = %21
  %26 = load ptr, ptr %7, align 8
  %27 = getelementptr inbounds i8, ptr %26, i64 0
  %28 = load i8, ptr %27, align 1
  %29 = zext i8 %28 to i32
  %30 = add i32 %29, 1
  %31 = load ptr, ptr %10, align 8
  %32 = getelementptr inbounds %struct.CBraState, ptr %31, i32 0, i32 5
  store i32 %30, ptr %32, align 8
  br label %70

33:                                               ; preds = %4
  %34 = load i64, ptr %8, align 8
  %35 = icmp eq i64 %34, 4
  br i1 %35, label %36, label %64

36:                                               ; preds = %33
  %37 = load ptr, ptr %7, align 8
  %38 = load i32, ptr %37, align 1
  store i32 %38, ptr %11, align 4
  %39 = load ptr, ptr %10, align 8
  %40 = getelementptr inbounds %struct.CBraState, ptr %39, i32 0, i32 3
  %41 = load i32, ptr %40, align 8
  switch i32 %41, label %60 [
    i32 5, label %42
    i32 7, label %42
    i32 9, label %42
    i32 8, label %48
    i32 6, label %54
  ]

42:                                               ; preds = %36, %36, %36
  %43 = load i32, ptr %11, align 4
  %44 = and i32 %43, 3
  %45 = icmp ne i32 %44, 0
  br i1 %45, label %46, label %47

46:                                               ; preds = %42
  store i32 4, ptr %5, align 4
  br label %71

47:                                               ; preds = %42
  br label %60

48:                                               ; preds = %36
  %49 = load i32, ptr %11, align 4
  %50 = and i32 %49, 1
  %51 = icmp ne i32 %50, 0
  br i1 %51, label %52, label %53

52:                                               ; preds = %48
  store i32 4, ptr %5, align 4
  br label %71

53:                                               ; preds = %48
  br label %60

54:                                               ; preds = %36
  %55 = load i32, ptr %11, align 4
  %56 = and i32 %55, 15
  %57 = icmp ne i32 %56, 0
  br i1 %57, label %58, label %59

58:                                               ; preds = %54
  store i32 4, ptr %5, align 4
  br label %71

59:                                               ; preds = %54
  br label %60

60:                                               ; preds = %59, %53, %47, %36
  %61 = load i32, ptr %11, align 4
  %62 = load ptr, ptr %10, align 8
  %63 = getelementptr inbounds %struct.CBraState, ptr %62, i32 0, i32 6
  store i32 %61, ptr %63, align 4
  br label %69

64:                                               ; preds = %33
  %65 = load i64, ptr %8, align 8
  %66 = icmp ne i64 %65, 0
  br i1 %66, label %67, label %68

67:                                               ; preds = %64
  store i32 4, ptr %5, align 4
  br label %71

68:                                               ; preds = %64
  br label %69

69:                                               ; preds = %68, %60
  br label %70

70:                                               ; preds = %69, %25
  store i32 0, ptr %5, align 4
  br label %71

71:                                               ; preds = %70, %67, %58, %52, %46, %24
  %72 = load i32, ptr %5, align 4
  ret i32 %72
}