; Function Attrs: mustprogress nofree norecurse nosync nounwind willreturn memory(argmem: readwrite) uwtable
define range(i32 0, 5) i32 @BraState_SetProps(ptr noundef captures(none) initializes((28, 32), (36, 40)) %0, ptr noundef readonly captures(none) %1, i64 noundef %2, ptr readnone captures(none) %3) #2 {
  %5 = getelementptr inbounds nuw i8, ptr %0, i64 28
  store i32 0, ptr %5, align 4
  %6 = getelementptr inbounds nuw i8, ptr %0, i64 36
  store i32 0, ptr %6, align 4
  %7 = getelementptr inbounds nuw i8, ptr %0, i64 24
  %8 = load i32, ptr %7, align 8
  %9 = icmp eq i32 %8, 3
  br i1 %9, label %10, label %16

10:                                               ; preds = %4
  %.not21 = icmp eq i64 %2, 1
  br i1 %.not21, label %11, label %27

11:                                               ; preds = %10
  %12 = load i8, ptr %1, align 1
  %13 = zext i8 %12 to i32
  %14 = add nuw nsw i32 %13, 1
  %15 = getelementptr inbounds nuw i8, ptr %0, i64 32
  store i32 %14, ptr %15, align 8
  br label %26

16:                                               ; preds = %4
  switch i64 %2, label %27 [
    i64 4, label %17
    i64 0, label %26
  ]

17:                                               ; preds = %16
  %18 = load i32, ptr %1, align 1
  switch i32 %8, label %25 [
    i32 5, label %19
    i32 7, label %19
    i32 9, label %19
    i32 8, label %21
    i32 6, label %23
  ]

19:                                               ; preds = %17, %17, %17
  %20 = and i32 %18, 3
  %.not20 = icmp eq i32 %20, 0
  br i1 %.not20, label %25, label %27

21:                                               ; preds = %17
  %22 = and i32 %18, 1
  %.not19 = icmp eq i32 %22, 0
  br i1 %.not19, label %25, label %27

23:                                               ; preds = %17
  %24 = and i32 %18, 15
  %.not18 = icmp eq i32 %24, 0
  br i1 %.not18, label %25, label %27

25:                                               ; preds = %23, %21, %19, %17
  store i32 %18, ptr %6, align 4
  br label %26

26:                                               ; preds = %16, %25, %11
  br label %27

27:                                               ; preds = %16, %23, %21, %19, %10, %26
  %.0 = phi i32 [ 0, %26 ], [ 4, %10 ], [ 4, %19 ], [ 4, %21 ], [ 4, %23 ], [ 4, %16 ]
  ret i32 %.0
}